; ModuleID = 'bench/linux/original/udplite.ll'
source_filename = "bench/linux/original/udplite.ll"
target datalayout = "e-m:e-p270:32:32-p271:32:32-p272:64:64-i64:64-i128:128-f80:128-n8:16:32:64-S128"
target triple = "x86_64-unknown-linux-gnu"

%struct.atomic64_t = type { i64 }
%struct.udp_table = type { ptr, ptr, i32, i32 }
%struct.proto = type { ptr, ptr, ptr, ptr, ptr, ptr, ptr, ptr, ptr, ptr, ptr, ptr, ptr, ptr, ptr, ptr, ptr, ptr, ptr, ptr, ptr, ptr, ptr, ptr, ptr, ptr, i32, ptr, ptr, ptr, ptr, ptr, ptr, ptr, ptr, ptr, ptr, ptr, i32, i32, i32, i8, ptr, i32, i32, i32, i32, i32, ptr, ptr, ptr, %union.anon.0, ptr, [32 x i8], %struct.list_head, ptr }
%union.anon.0 = type { ptr }
%struct.list_head = type { ptr, ptr }
%struct.inet6_protocol = type { ptr, ptr, i32 }
%struct.inet_protosw = type { %struct.list_head, i16, i16, ptr, ptr, i8 }
%struct.pernet_operations = type { %struct.list_head, ptr, ptr, ptr, ptr, ptr, i64 }
%struct.proto_ops = type { i32, ptr, ptr, ptr, ptr, ptr, ptr, ptr, ptr, ptr, ptr, ptr, ptr, ptr, ptr, ptr, ptr, ptr, ptr, ptr, ptr, ptr, ptr, ptr, ptr, ptr, ptr, ptr }
%struct.seq_operations = type { ptr, ptr, ptr, ptr }
%struct.udp_seq_afinfo = type { i16, ptr }

@udp_memory_allocated = external dso_local global %struct.atomic64_t, align 8
@udp_memory_per_cpu_fw_alloc = external dso_local global i32, section ".data..percpu", align 4
@sysctl_udp_mem = external dso_local global [3 x i64], align 16
@udplite_table = external dso_local global %struct.udp_table, align 8
@udplitev6_prot = dso_local global %struct.proto { ptr @udp_lib_close, ptr null, ptr @ip6_datagram_connect, ptr @udp_disconnect, ptr null, ptr @udp_ioctl, ptr @udplitev6_sk_init, ptr @udpv6_destroy_sock, ptr null, ptr @udpv6_setsockopt, ptr @udpv6_getsockopt, ptr null, ptr null, ptr @udpv6_sendmsg, ptr @udpv6_recvmsg, ptr null, ptr null, ptr null, ptr null, ptr null, ptr null, ptr @udp_lib_hash, ptr @udp_lib_unhash, ptr @udp_v6_rehash, ptr @udp_v6_get_port, ptr null, i32 0, ptr null, ptr null, ptr null, ptr null, ptr @udp_memory_allocated, ptr @udp_memory_per_cpu_fw_alloc, ptr null, ptr null, ptr @sysctl_udp_mem, ptr null, ptr null, i32 1288, i32 1292, i32 0, i8 0, ptr null, i32 1344, i32 1152, i32 0, i32 0, i32 0, ptr null, ptr null, ptr null, %union.anon.0 { ptr @udplite_table }, ptr null, [32 x i8] c"UDPLITEv6\00\00\00\00\00\00\00\00\00\00\00\00\00\00\00\00\00\00\00\00\00\00\00", %struct.list_head zeroinitializer, ptr null }, align 8
@udplitev6_protocol = internal constant %struct.inet6_protocol { ptr @udplitev6_rcv, ptr @udplitev6_err, i32 3 }, align 8
@udplite6_protosw = internal global %struct.inet_protosw { %struct.list_head zeroinitializer, i16 2, i16 136, ptr @udplitev6_prot, ptr @inet6_dgram_ops, i8 2 }, align 8
@udplite6_net_ops = internal global %struct.pernet_operations { %struct.list_head zeroinitializer, ptr @udplite6_proc_init_net, ptr null, ptr @udplite6_proc_exit_net, ptr null, ptr null, i64 0 }, align 8
@udplitev6_sk_init.__already_done = internal unnamed_addr global i1 false, section ".data.once", align 1
@.str = private unnamed_addr constant [112 x i8] c"\014UDPLite6: UDP-Lite is deprecated and scheduled to be removed in 2025, please contact the netdev mailing list\0A\00", align 1
@.str.1 = private unnamed_addr constant [18 x i8] c"include/net/udp.h\00", align 1
@inet6_dgram_ops = external dso_local constant %struct.proto_ops, align 8
@.str.2 = private unnamed_addr constant [9 x i8] c"udplite6\00", align 1
@udp6_seq_ops = external dso_local constant %struct.seq_operations, align 8
@udplite6_seq_afinfo = internal global %struct.udp_seq_afinfo { i16 10, ptr @udplite_table }, align 8

; Function Attrs: fn_ret_thunk_extern inlinehint nounwind null_pointer_is_valid
define internal void @udp_lib_close(ptr noundef %0, i64 %1) #0 align 16 {
  tail call void @sk_common_release(ptr noundef %0) #6
  ret void
}

; Function Attrs: null_pointer_is_valid
declare dso_local i32 @ip6_datagram_connect(ptr noundef, ptr noundef, i32 noundef) #1

; Function Attrs: null_pointer_is_valid
declare dso_local i32 @udp_disconnect(ptr noundef, i32 noundef) #1

; Function Attrs: null_pointer_is_valid
declare dso_local i32 @udp_ioctl(ptr noundef, i32 noundef, ptr noundef) #1

; Function Attrs: fn_ret_thunk_extern nounwind null_pointer_is_valid
define internal noundef i32 @udplitev6_sk_init(ptr noundef %0) #2 align 16 {
  %2 = tail call i32 @udpv6_init_sock(ptr noundef %0) #6
  %3 = load i1, ptr @udplitev6_sk_init.__already_done, align 1
  br i1 %3, label %6, label %4, !prof !5

4:                                                ; preds = %1
  store i1 true, ptr @udplitev6_sk_init.__already_done, align 1
  %5 = tail call i32 (ptr, ...) @_printk(ptr noundef nonnull @.str) #7
  br label %6

6:                                                ; preds = %4, %1
  ret i32 0
}

; Function Attrs: null_pointer_is_valid
declare dso_local void @udpv6_destroy_sock(ptr noundef) #1

; Function Attrs: null_pointer_is_valid
declare dso_local i32 @udpv6_setsockopt(ptr noundef, i32 noundef, i32 noundef, ptr, i8, i32 noundef) #1

; Function Attrs: null_pointer_is_valid
declare dso_local i32 @udpv6_getsockopt(ptr noundef, i32 noundef, i32 noundef, ptr noundef, ptr noundef) #1

; Function Attrs: null_pointer_is_valid
declare dso_local i32 @udpv6_sendmsg(ptr noundef, ptr noundef, i64 noundef) #1

; Function Attrs: null_pointer_is_valid
declare dso_local i32 @udpv6_recvmsg(ptr noundef, ptr noundef, i64 noundef, i32 noundef, ptr noundef) #1

; Function Attrs: fn_ret_thunk_extern inlinehint noreturn nounwind null_pointer_is_valid
define internal noundef i32 @udp_lib_hash(ptr nocapture readnone %0) #3 align 16 {
  tail call void asm sideeffect "732: nop\0A\09.pushsection .discard.instr_begin\0A\09.long 732b - .\0A\09.popsection\0A\09", "i,~{dirflag},~{fpsr},~{flags}"(i32 732) #6, !srcloc !6
  tail call void asm sideeffect "1:\09.byte 0x0f, 0x0b\0A.pushsection __bug_table,\22aw\22\0A2:\09.long 1b - .\09# bug_entry::bug_addr\0A\09.long ${0:c} - .\09# bug_entry::file\0A\09.word ${1:c}\09# bug_entry::line\0A\09.word ${2:c}\09# bug_entry::flags\0A\09.org 2b+${3:c}\0A.popsection\0A", "i,i,i,i,~{dirflag},~{fpsr},~{flags}"(ptr nonnull @.str.1, i32 190, i32 0, i64 12) #6, !srcloc !7
  unreachable
}

; Function Attrs: null_pointer_is_valid
declare dso_local void @udp_lib_unhash(ptr noundef) #1

; Function Attrs: null_pointer_is_valid
declare dso_local void @udp_v6_rehash(ptr noundef) #1

; Function Attrs: null_pointer_is_valid
declare dso_local i32 @udp_v6_get_port(ptr noundef, i16 noundef zeroext) #1

; Function Attrs: cold fn_ret_thunk_extern nounwind null_pointer_is_valid optsize
define dso_local i32 @udplitev6_init() local_unnamed_addr #4 section ".init.text" align 16 {
  %1 = tail call i32 @inet6_add_protocol(ptr noundef nonnull @udplitev6_protocol, i8 noundef zeroext -120) #6
  %2 = icmp eq i32 %1, 0
  br i1 %2, label %3, label %6

3:                                                ; preds = %0
  %4 = tail call i32 @inet6_register_protosw(ptr noundef nonnull @udplite6_protosw) #6
  %5 = icmp eq i32 %4, 0
  br i1 %5, label %6, label %8

6:                                                ; preds = %8, %3, %0
  %7 = phi i32 [ %1, %0 ], [ %4, %8 ], [ 0, %3 ]
  ret i32 %7

8:                                                ; preds = %3
  %9 = tail call i32 @inet6_del_protocol(ptr noundef nonnull @udplitev6_protocol, i8 noundef zeroext -120) #6
  br label %6
}

; Function Attrs: null_pointer_is_valid
declare dso_local i32 @inet6_add_protocol(ptr noundef, i8 noundef zeroext) local_unnamed_addr #1

; Function Attrs: null_pointer_is_valid
declare dso_local i32 @inet6_register_protosw(ptr noundef) local_unnamed_addr #1

; Function Attrs: null_pointer_is_valid
declare dso_local i32 @inet6_del_protocol(ptr noundef, i8 noundef zeroext) local_unnamed_addr #1

; Function Attrs: fn_ret_thunk_extern nounwind null_pointer_is_valid
define dso_local void @udplitev6_exit() local_unnamed_addr #2 align 16 {
  tail call void @inet6_unregister_protosw(ptr noundef nonnull @udplite6_protosw) #6
  %1 = tail call i32 @inet6_del_protocol(ptr noundef nonnull @udplitev6_protocol, i8 noundef zeroext -120) #6
  ret void
}

; Function Attrs: null_pointer_is_valid
declare dso_local void @inet6_unregister_protosw(ptr noundef) local_unnamed_addr #1

; Function Attrs: cold fn_ret_thunk_extern nounwind null_pointer_is_valid optsize
define dso_local i32 @udplite6_proc_init() local_unnamed_addr #4 section ".init.text" align 16 {
  %1 = tail call i32 @register_pernet_subsys(ptr noundef nonnull @udplite6_net_ops) #6
  ret i32 %1
}

; Function Attrs: null_pointer_is_valid
declare dso_local i32 @register_pernet_subsys(ptr noundef) local_unnamed_addr #1

; Function Attrs: fn_ret_thunk_extern nounwind null_pointer_is_valid
define dso_local void @udplite6_proc_exit() local_unnamed_addr #2 align 16 {
  tail call void @unregister_pernet_subsys(ptr noundef nonnull @udplite6_net_ops) #6
  ret void
}

; Function Attrs: null_pointer_is_valid
declare dso_local void @unregister_pernet_subsys(ptr noundef) local_unnamed_addr #1

; Function Attrs: null_pointer_is_valid
declare dso_local void @sk_common_release(ptr noundef) local_unnamed_addr #1

; Function Attrs: null_pointer_is_valid
declare dso_local i32 @udpv6_init_sock(ptr noundef) local_unnamed_addr #1

; Function Attrs: cold null_pointer_is_valid
declare dso_local i32 @_printk(ptr noundef, ...) local_unnamed_addr #5

; Function Attrs: fn_ret_thunk_extern nounwind null_pointer_is_valid
define internal i32 @udplitev6_rcv(ptr noundef %0) #2 align 16 {
  %2 = tail call i32 @__udp6_lib_rcv(ptr noundef %0, ptr noundef nonnull @udplite_table, i32 noundef 136) #6
  ret i32 %2
}

; Function Attrs: fn_ret_thunk_extern nounwind null_pointer_is_valid
define internal i32 @udplitev6_err(ptr noundef %0, ptr noundef %1, i8 noundef zeroext %2, i8 noundef zeroext %3, i32 noundef %4, i32 noundef %5) #2 align 16 {
  %7 = tail call i32 @__udp6_lib_err(ptr noundef %0, ptr noundef %1, i8 noundef zeroext %2, i8 noundef zeroext %3, i32 noundef %4, i32 noundef %5, ptr noundef nonnull @udplite_table) #6
  ret i32 %7
}

; Function Attrs: null_pointer_is_valid
declare dso_local i32 @__udp6_lib_rcv(ptr noundef, ptr noundef, i32 noundef) local_unnamed_addr #1

; Function Attrs: null_pointer_is_valid
declare dso_local i32 @__udp6_lib_err(ptr noundef, ptr noundef, i8 noundef zeroext, i8 noundef zeroext, i32 noundef, i32 noundef, ptr noundef) local_unnamed_addr #1

; Function Attrs: fn_ret_thunk_extern nounwind null_pointer_is_valid
define internal i32 @udplite6_proc_init_net(ptr nocapture noundef readonly %0) #2 align 16 {
  %2 = getelementptr inbounds i8, ptr %0, i64 160
  %3 = load ptr, ptr %2, align 32
  %4 = tail call ptr @proc_create_net_data(ptr noundef nonnull @.str.2, i16 noundef zeroext 292, ptr noundef %3, ptr noundef nonnull @udp6_seq_ops, i32 noundef 16, ptr noundef nonnull @udplite6_seq_afinfo) #6
  %5 = icmp eq ptr %4, null
  %6 = select i1 %5, i32 -12, i32 0
  ret i32 %6
}

; Function Attrs: fn_ret_thunk_extern nounwind null_pointer_is_valid
define internal void @udplite6_proc_exit_net(ptr nocapture noundef readonly %0) #2 align 16 {
  %2 = getelementptr inbounds i8, ptr %0, i64 160
  %3 = load ptr, ptr %2, align 32
  tail call void @remove_proc_entry(ptr noundef nonnull @.str.2, ptr noundef %3) #6
  ret void
}

; Function Attrs: null_pointer_is_valid
declare dso_local ptr @proc_create_net_data(ptr noundef, i16 noundef zeroext, ptr noundef, ptr noundef, i32 noundef, ptr noundef) local_unnamed_addr #1

; Function Attrs: null_pointer_is_valid
declare dso_local void @remove_proc_entry(ptr noundef, ptr noundef) local_unnamed_addr #1


!llvm.module.flags = !{!0, !1, !2, !3, !4}

!0 = !{i32 1, !"wchar_size", i32 2}
!1 = !{i32 8, !"cf-protection-branch", i32 1}
!2 = !{i32 4, !"function_return_thunk_extern", i32 1}
!3 = !{i32 4, !"indirect_branch_cs_prefix", i32 1}
!4 = !{i32 4, !"SkipRaxSetup", i32 1}
!5 = !{!"branch_weights", i32 2000, i32 1}
!6 = !{i64 2158590083, i64 2158589892, i64 2158589944, i64 2158589990, i64 2158590018}
!7 = !{i64 2158590157, i64 2158590186, i64 2158590232, i64 2158590290, i64 2158590344, i64 2158590398, i64 2158590453, i64 2158590484}
